target datalayout = "e-m:e-p270:32:32-p271:32:32-p272:64:64-i64:64-i128:128-f80:128-n8:16:32:64-S128"
target triple = "x86_64-pc-linux-gnu"

%struct.ZSTD_inBuffer_s = type { ptr, i64, i64 }
%"class.rocksdb::ZSTDStreamingUncompress" = type { %"class.rocksdb::StreamingUncompress", ptr, %struct.ZSTD_inBuffer_s }
%"class.rocksdb::StreamingUncompress" = type { ptr, i8, i32, i64 }

@_ZTVN7rocksdb19StreamingUncompressE = linkonce_odr unnamed_addr constant { [6 x ptr] } { [6 x ptr] [ptr null, ptr null, ptr @_ZN7rocksdb19StreamingUncompressD2Ev, ptr @_ZN7rocksdb19StreamingUncompressD0Ev, ptr @__cxa_pure_virtual, ptr @__cxa_pure_virtual] }, comdat, align 8

; Function Attrs: mustprogress nounwind uwtable
define linkonce_odr void @_ZN7rocksdb19StreamingUncompressD2Ev(ptr noundef nonnull align 8 dereferenceable(24) %0) unnamed_addr #8 comdat align 2 {
  %2 = alloca ptr, align 8
  store ptr %0, ptr %2, align 8, !tbaa !56
  ret void
}

; Function Attrs: mustprogress nounwind uwtable
define linkonce_odr void @_ZN7rocksdb19StreamingUncompressC2ENS_15CompressionTypeEjm(ptr noundef nonnull align 8 dereferenceable(24) %0, i8 noundef zeroext %1, i32 noundef %2, i64 noundef %3) unnamed_addr #8 comdat align 2 {
  %5 = alloca ptr, align 8
  %6 = alloca i8, align 1
  %7 = alloca i32, align 4
  %8 = alloca i64, align 8
  store ptr %0, ptr %5, align 8, !tbaa !56
  store i8 %1, ptr %6, align 1, !tbaa !4
  store i32 %2, ptr %7, align 4, !tbaa !11
  store i64 %3, ptr %8, align 8, !tbaa !13
  %9 = load ptr, ptr %5, align 8
  store ptr getelementptr inbounds inrange(-16, 32) ({ [6 x ptr] }, ptr @_ZTVN7rocksdb19StreamingUncompressE, i32 0, i32 0, i32 2), ptr %9, align 8, !tbaa !17
  %10 = getelementptr inbounds nuw %"class.rocksdb::StreamingUncompress", ptr %9, i32 0, i32 1
  %11 = load i8, ptr %6, align 1, !tbaa !4
  store i8 %11, ptr %10, align 8, !tbaa !58
  %12 = getelementptr inbounds nuw %"class.rocksdb::StreamingUncompress", ptr %9, i32 0, i32 2
  %13 = load i32, ptr %7, align 4, !tbaa !11
  store i32 %13, ptr %12, align 4, !tbaa !59
  %14 = getelementptr inbounds nuw %"class.rocksdb::StreamingUncompress", ptr %9, i32 0, i32 3
  %15 = load i64, ptr %8, align 8, !tbaa !13
  store i64 %15, ptr %14, align 8, !tbaa !47
  ret void
}

; Function Attrs: mustprogress uwtable
define linkonce_odr void @_ZN7rocksdb23ZSTDStreamingUncompressC2Ejm(ptr noundef nonnull align 8 dereferenceable(56) %0, i32 noundef %1, i64 noundef %2) unnamed_addr #0 comdat align 2 personality ptr @__gxx_personality_v0 {
  %4 = alloca ptr, align 8
  %5 = alloca i32, align 4
  %6 = alloca i64, align 8
  %7 = alloca ptr, align 8
  %8 = alloca i32, align 4
  %9 = alloca %struct.ZSTD_inBuffer_s, align 8
  store ptr %0, ptr %4, align 8, !tbaa !28
  store i32 %1, ptr %5, align 4, !tbaa !11
  store i64 %2, ptr %6, align 8, !tbaa !13
  %10 = load ptr, ptr %4, align 8
  %11 = load i32, ptr %5, align 4, !tbaa !11
  %12 = load i64, ptr %6, align 8, !tbaa !13
  call void @_ZN7rocksdb19StreamingUncompressC2ENS_15CompressionTypeEjm(ptr noundef nonnull align 8 dereferenceable(24) %10, i8 noundef zeroext 7, i32 noundef %11, i64 noundef %12)
  store ptr getelementptr inbounds inrange(-16, 32) ({ [6 x ptr] }, ptr @_ZTVN7rocksdb23ZSTDStreamingUncompressE, i32 0, i32 0, i32 2), ptr %10, align 8, !tbaa !17
  %13 = invoke ptr @ZSTD_createDCtx()
          to label %14 unwind label %17

14:                                               ; preds = %3
  %15 = getelementptr inbounds nuw %"class.rocksdb::ZSTDStreamingUncompress", ptr %10, i32 0, i32 1
  store ptr %13, ptr %15, align 8, !tbaa !30
  call void @llvm.lifetime.start.p0(i64 24, ptr %9) #13
  call void @llvm.memset.p0.i64(ptr align 8 %9, i8 0, i64 24, i1 false)
  %16 = getelementptr inbounds nuw %"class.rocksdb::ZSTDStreamingUncompress", ptr %10, i32 0, i32 2
  call void @llvm.memcpy.p0.p0.i64(ptr align 8 %16, ptr align 8 %9, i64 24, i1 false), !tbaa.struct !26
  call void @llvm.lifetime.end.p0(i64 24, ptr %9) #13
  ret void

17:                                               ; preds = %3
  %18 = landingpad { ptr, i32 }
          cleanup
  %19 = extractvalue { ptr, i32 } %18, 0
  store ptr %19, ptr %7, align 8
  %20 = extractvalue { ptr, i32 } %18, 1
  store i32 %20, ptr %8, align 4
  call void @_ZN7rocksdb19StreamingUncompressD2Ev(ptr noundef nonnull align 8 dereferenceable(24) %10) #13
  br label %21

21:                                               ; preds = %17
  %22 = load ptr, ptr %7, align 8
  %23 = load i32, ptr %8, align 4
  %24 = insertvalue { ptr, i32 } poison, ptr %22, 0
  %25 = insertvalue { ptr, i32 } %24, i32 %23, 1
  resume { ptr, i32 } %25
}

; Function Attrs: inlinehint mustprogress nounwind uwtable
define linkonce_odr noundef zeroext i1 @_ZN7rocksdb24ZSTD_Streaming_SupportedEv() #1 comdat {
  ret i1 true
}

; Function Attrs: mustprogress uwtable
define noundef ptr @_ZN7rocksdb19StreamingUncompress6CreateENS_15CompressionTypeEjm(i8 noundef zeroext %0, i32 noundef %1, i64 noundef %2) #0 align 2 personality ptr @__gxx_personality_v0 {
  %4 = alloca ptr, align 8
  %5 = alloca i8, align 1
  %6 = alloca i32, align 4
  %7 = alloca i64, align 8
  %8 = alloca ptr, align 8
  %9 = alloca i32, align 4
  store i8 %0, ptr %5, align 1, !tbaa !4
  store i32 %1, ptr %6, align 4, !tbaa !11
  store i64 %2, ptr %7, align 8, !tbaa !13
  %10 = load i8, ptr %5, align 1, !tbaa !4
  %11 = zext i8 %10 to i32
  switch i32 %11, label %24 [
    i32 7, label %12
  ]

12:                                               ; preds = %3
  %13 = call noundef zeroext i1 @_ZN7rocksdb24ZSTD_Streaming_SupportedEv()
  br i1 %13, label %15, label %14

14:                                               ; preds = %12
  store ptr null, ptr %4, align 8
  br label %25

15:                                               ; preds = %12
  %16 = call noalias noundef nonnull ptr @_Znwm(i64 noundef 56) #11
  %17 = load i32, ptr %6, align 4, !tbaa !11
  %18 = load i64, ptr %7, align 8, !tbaa !13
  invoke void @_ZN7rocksdb23ZSTDStreamingUncompressC2Ejm(ptr noundef nonnull align 8 dereferenceable(56) %16, i32 noundef %17, i64 noundef %18)
          to label %19 unwind label %20

19:                                               ; preds = %15
  store ptr %16, ptr %4, align 8
  br label %25

20:                                               ; preds = %15
  %21 = landingpad { ptr, i32 }
          cleanup
  %22 = extractvalue { ptr, i32 } %21, 0
  store ptr %22, ptr %8, align 8
  %23 = extractvalue { ptr, i32 } %21, 1
  store i32 %23, ptr %9, align 4
  call void @_ZdlPvm(ptr noundef %16, i64 noundef 56) #12
  br label %27

24:                                               ; preds = %3
  store ptr null, ptr %4, align 8
  br label %25

25:                                               ; preds = %24, %19, %14
  %26 = load ptr, ptr %4, align 8
  ret ptr %26

27:                                               ; preds = %20
  %28 = load ptr, ptr %8, align 8
  %29 = load i32, ptr %9, align 4
  %30 = insertvalue { ptr, i32 } poison, ptr %28, 0
  %31 = insertvalue { ptr, i32 } %30, i32 %29, 1
  resume { ptr, i32 } %31
}