; Function Attrs: mustprogress uwtable
define noundef ptr @_ZN7rocksdb19StreamingUncompress6CreateENS_15CompressionTypeEjm(i8 noundef zeroext %0, i32 noundef %1, i64 noundef %2) local_unnamed_addr #0 align 2 personality ptr @__gxx_personality_v0 {
  %cond = icmp eq i8 %0, 7
  br i1 %cond, label %4, label %14

4:                                                ; preds = %3
  %5 = tail call noalias noundef nonnull dereferenceable(56) ptr @_Znwm(i64 noundef 56) #10
  %6 = getelementptr inbounds nuw i8, ptr %5, i64 8
  store i8 7, ptr %6, align 8, !tbaa !26
  %7 = getelementptr inbounds nuw i8, ptr %5, i64 12
  store i32 %1, ptr %7, align 4, !tbaa !28
  %8 = getelementptr inbounds nuw i8, ptr %5, i64 16
  store i64 %2, ptr %8, align 8, !tbaa !29
  store ptr getelementptr inbounds nuw inrange(-16, 32) (i8, ptr @_ZTVN7rocksdb23ZSTDStreamingUncompressE, i64 16), ptr %5, align 8, !tbaa !19
  %9 = invoke ptr @ZSTD_createDCtx()
          to label %_ZN7rocksdb23ZSTDStreamingUncompressC2Ejm.exit unwind label %12

_ZN7rocksdb23ZSTDStreamingUncompressC2Ejm.exit:   ; preds = %4
  %10 = getelementptr inbounds nuw i8, ptr %5, i64 24
  store ptr %9, ptr %10, align 8, !tbaa !30
  %11 = getelementptr inbounds nuw i8, ptr %5, i64 32
  tail call void @llvm.memset.p0.i64(ptr noundef nonnull align 8 dereferenceable(24) %11, i8 0, i64 24, i1 false)
  br label %14

12:                                               ; preds = %4
  %13 = landingpad { ptr, i32 }
          cleanup
  tail call void @_ZdlPvm(ptr noundef nonnull %5, i64 noundef 56) #11
  resume { ptr, i32 } %13

14:                                               ; preds = %_ZN7rocksdb23ZSTDStreamingUncompressC2Ejm.exit, %3
  %.0 = phi ptr [ %5, %_ZN7rocksdb23ZSTDStreamingUncompressC2Ejm.exit ], [ null, %3 ]
  ret ptr %.0
}